target datalayout = "e-m:e-p270:32:32-p271:32:32-p272:64:64-i64:64-i128:128-f80:128-n8:16:32:64-S128"
target triple = "x86_64-pc-linux-gnu"

%"class.llvm::InsertPosition" = type { %"class.llvm::ilist_iterator_w_bits" }
%"class.llvm::ilist_iterator_w_bits" = type <{ ptr, i8, i8, [6 x i8] }>

; Function Attrs: mustprogress nounwind uwtable
define linkonce_odr hidden void @_ZN4llvm21ilist_iterator_w_bitsINS_12ilist_detail12node_optionsINS_11InstructionELb0ELb0EvLb1ENS_10BasicBlockEEELb0ELb0EEC2ERNS_15ilist_node_implIS5_EE(ptr noundef nonnull align 8 dereferenceable(10) %0, ptr noundef nonnull align 8 dereferenceable(24) %1) unnamed_addr #0 comdat align 2 {
  %3 = alloca ptr, align 8
  %4 = alloca ptr, align 8
  store ptr %0, ptr %3, align 8
  store ptr %1, ptr %4, align 8
  %5 = load ptr, ptr %3, align 8
  %6 = getelementptr inbounds nuw %"class.llvm::ilist_iterator_w_bits", ptr %5, i32 0, i32 0
  %7 = load ptr, ptr %4, align 8
  store ptr %7, ptr %6, align 8
  %8 = getelementptr inbounds nuw %"class.llvm::ilist_iterator_w_bits", ptr %5, i32 0, i32 1
  store i8 0, ptr %8, align 8
  %9 = getelementptr inbounds nuw %"class.llvm::ilist_iterator_w_bits", ptr %5, i32 0, i32 2
  store i8 0, ptr %9, align 1
  ret void
}

; Function Attrs: mustprogress nounwind uwtable
define linkonce_odr hidden void @_ZN4llvm21ilist_iterator_w_bitsINS_12ilist_detail12node_optionsINS_11InstructionELb0ELb0EvLb1ENS_10BasicBlockEEELb0ELb0EEC2Ev(ptr noundef nonnull align 8 dereferenceable(10) %0) unnamed_addr #0 comdat align 2 {
  %2 = alloca ptr, align 8
  store ptr %0, ptr %2, align 8
  %3 = load ptr, ptr %2, align 8
  %4 = getelementptr inbounds nuw %"class.llvm::ilist_iterator_w_bits", ptr %3, i32 0, i32 0
  store ptr null, ptr %4, align 8
  %5 = getelementptr inbounds nuw %"class.llvm::ilist_iterator_w_bits", ptr %3, i32 0, i32 1
  store i8 0, ptr %5, align 8
  %6 = getelementptr inbounds nuw %"class.llvm::ilist_iterator_w_bits", ptr %3, i32 0, i32 2
  store i8 0, ptr %6, align 1
  ret void
}

; Function Attrs: mustprogress nounwind uwtable
define linkonce_odr hidden { ptr, i64 } @_ZN4llvm15ilist_node_implINS_12ilist_detail12node_optionsINS_11InstructionELb0ELb0EvLb1ENS_10BasicBlockEEEE11getIteratorEv(ptr noundef nonnull align 8 dereferenceable(24) %0) #0 comdat align 2 {
  %2 = alloca %"class.llvm::ilist_iterator_w_bits", align 8
  %3 = alloca ptr, align 8
  store ptr %0, ptr %3, align 8
  %4 = load ptr, ptr %3, align 8
  call void @_ZN4llvm21ilist_iterator_w_bitsINS_12ilist_detail12node_optionsINS_11InstructionELb0ELb0EvLb1ENS_10BasicBlockEEELb0ELb0EEC2ERNS_15ilist_node_implIS5_EE(ptr noundef nonnull align 8 dereferenceable(10) %2, ptr noundef nonnull align 8 dereferenceable(24) %4)
  %5 = load { ptr, i64 }, ptr %2, align 8
  ret { ptr, i64 } %5
}

; Function Attrs: mustprogress nounwind uwtable
define dso_local void @_ZN4llvm14InsertPositionC2EPNS_11InstructionE(ptr noundef nonnull align 8 dereferenceable(16) %0, ptr noundef %1) unnamed_addr #0 align 2 {
  %3 = alloca ptr, align 8
  %4 = alloca ptr, align 8
  %5 = alloca { ptr, i64 }, align 8
  store ptr %0, ptr %3, align 8
  store ptr %1, ptr %4, align 8
  %6 = load ptr, ptr %3, align 8
  %7 = getelementptr inbounds nuw %"class.llvm::InsertPosition", ptr %6, i32 0, i32 0
  %8 = load ptr, ptr %4, align 8
  %9 = icmp ne ptr %8, null
  br i1 %9, label %10, label %14

10:                                               ; preds = %2
  %11 = load ptr, ptr %4, align 8
  %12 = getelementptr inbounds i8, ptr %11, i64 24
  %13 = call { ptr, i64 } @_ZN4llvm15ilist_node_implINS_12ilist_detail12node_optionsINS_11InstructionELb0ELb0EvLb1ENS_10BasicBlockEEEE11getIteratorEv(ptr noundef nonnull align 8 dereferenceable(24) %12)
  store { ptr, i64 } %13, ptr %5, align 8
  call void @llvm.memcpy.p0.p0.i64(ptr align 8 %7, ptr align 8 %5, i64 10, i1 false)
  br label %15

14:                                               ; preds = %2
  call void @llvm.memset.p0.i64(ptr align 8 %7, i8 0, i64 16, i1 false)
  call void @_ZN4llvm21ilist_iterator_w_bitsINS_12ilist_detail12node_optionsINS_11InstructionELb0ELb0EvLb1ENS_10BasicBlockEEELb0ELb0EEC2Ev(ptr noundef nonnull align 8 dereferenceable(10) %7) #9
  br label %15

15:                                               ; preds = %14, %10
  ret void
}