; Function Attrs: mustprogress nofree norecurse nosync nounwind willreturn memory(argmem: write) uwtable
define dso_local void @_ZN4llvm14InsertPositionC2EPNS_11InstructionE(ptr nocapture noundef nonnull writeonly align 8 dereferenceable(16) %0, ptr noundef %1) unnamed_addr #0 align 2 {
  %.not = icmp eq ptr %1, null
  br i1 %.not, label %5, label %3

3:                                                ; preds = %2
  %4 = getelementptr inbounds i8, ptr %1, i64 24
  %.sroa.2.0..sroa_idx = getelementptr inbounds i8, ptr %0, i64 8
  store i16 0, ptr %.sroa.2.0..sroa_idx, align 8
  br label %7

5:                                                ; preds = %2
  %6 = getelementptr inbounds i8, ptr %0, i64 8
  store i64 0, ptr %6, align 8
  br label %7

7:                                                ; preds = %5, %3
  %.sink = phi ptr [ null, %5 ], [ %4, %3 ]
  store ptr %.sink, ptr %0, align 8
  ret void
}